; Function Attrs: mustprogress uwtable
define hidden noundef zeroext i1 @_ZN10sls_engine9full_evalER5model(ptr nocapture noundef nonnull readonly align 8 dereferenceable(1512) %this, ptr noundef nonnull align 8 dereferenceable(160) %mdl) local_unnamed_addr #3 align 2 personality ptr @__gxx_personality_v0 {
entry:
  %_scm = alloca %"class.model::scoped_model_completion", align 8
  %m_mev.i = getelementptr inbounds i8, ptr %mdl, i64 128
  %call.i = tail call noundef zeroext i1 @_ZNK15model_evaluator20get_model_completionEv(ptr noundef nonnull align 8 dereferenceable(8) %m_mev.i)
  %frombool2.i = zext i1 %call.i to i8
  store i8 %frombool2.i, ptr %_scm, align 8
  %m_model.i = getelementptr inbounds i8, ptr %_scm, i64 8
  store ptr %mdl, ptr %m_model.i, align 8
  tail call void @_ZN15model_evaluator20set_model_completionEb(ptr noundef nonnull align 8 dereferenceable(8) %m_mev.i, i1 noundef zeroext true)
  %m_assertions = getelementptr inbounds i8, ptr %this, i64 1448
  %0 = load ptr, ptr %m_assertions, align 8
  %cmp.i.i = icmp eq ptr %0, null
  br i1 %cmp.i.i, label %cleanup, label %_ZN6vectorIP4exprLb0EjE3endEv.exit

_ZN6vectorIP4exprLb0EjE3endEv.exit:               ; preds = %entry
  %arrayidx.i.i = getelementptr inbounds i8, ptr %0, i64 -4
  %1 = load i32, ptr %arrayidx.i.i, align 4
  %2 = zext i32 %1 to i64
  %add.ptr.i = getelementptr inbounds ptr, ptr %0, i64 %2
  %cmp.not7 = icmp eq i32 %1, 0
  br i1 %cmp.not7, label %cleanup, label %for.body

for.body:                                         ; preds = %_ZN6vectorIP4exprLb0EjE3endEv.exit, %invoke.cont5
  %__begin1.08 = phi ptr [ %incdec.ptr, %invoke.cont5 ], [ %0, %_ZN6vectorIP4exprLb0EjE3endEv.exit ]
  %3 = load ptr, ptr %__begin1.08, align 8
  %4 = load ptr, ptr %this, align 8
  invoke void @_ZN6tactic10checkpointER11ast_manager(ptr noundef nonnull align 8 dereferenceable(976) %4)
          to label %invoke.cont4 unwind label %lpad

invoke.cont4:                                     ; preds = %for.body
  %call6 = invoke noundef zeroext i1 @_ZN5model7is_trueEP4expr(ptr noundef nonnull align 8 dereferenceable(160) %mdl, ptr noundef %3)
          to label %invoke.cont5 unwind label %lpad

invoke.cont5:                                     ; preds = %invoke.cont4
  %incdec.ptr = getelementptr inbounds i8, ptr %__begin1.08, i64 8
  %cmp.not = icmp ne ptr %incdec.ptr, %add.ptr.i
  %or.cond.not = select i1 %call6, i1 %cmp.not, i1 false
  br i1 %or.cond.not, label %for.body, label %cleanup

lpad:                                             ; preds = %for.body, %invoke.cont4
  %5 = landingpad { ptr, i32 }
          cleanup
  call void @_ZN5model23scoped_model_completionD2Ev(ptr noundef nonnull align 8 dereferenceable(16) %_scm) #22
  resume { ptr, i32 } %5

cleanup:                                          ; preds = %invoke.cont5, %entry, %_ZN6vectorIP4exprLb0EjE3endEv.exit
  %cmp.not.lcssa = phi i1 [ true, %_ZN6vectorIP4exprLb0EjE3endEv.exit ], [ true, %entry ], [ %call6, %invoke.cont5 ]
  invoke void @_ZN15model_evaluator20set_model_completionEb(ptr noundef nonnull align 8 dereferenceable(8) %m_mev.i, i1 noundef zeroext %call.i)
          to label %_ZN5model23scoped_model_completionD2Ev.exit unwind label %terminate.lpad.i

terminate.lpad.i:                                 ; preds = %cleanup
  %6 = landingpad { ptr, i32 }
          catch ptr null
  %7 = extractvalue { ptr, i32 } %6, 0
  tail call void @__clang_call_terminate(ptr %7) #23
  unreachable

_ZN5model23scoped_model_completionD2Ev.exit:      ; preds = %cleanup
  ret i1 %cmp.not.lcssa
}